; Function Attrs: mustprogress nounwind uwtable
define hidden void @_ZN14JfrJavaSupport21new_object_global_refEP16JfrJavaArgumentsP10JavaThread(ptr noundef nonnull %0, ptr noundef %1) local_unnamed_addr #0 align 2 {
  %3 = alloca %class.HandleMark, align 8
  %4 = tail call noundef ptr @_ZNK16JfrJavaArguments6resultEv(ptr noundef nonnull align 8 dereferenceable(300) %0) #13
  tail call fastcc void @_ZL13create_objectP16JfrJavaArgumentsP9JavaValueP10JavaThread(ptr noundef nonnull %0, ptr noundef %4, ptr noundef %1)
  %5 = getelementptr inbounds i8, ptr %1, i64 8
  %6 = load ptr, ptr %5, align 8
  %.not = icmp eq ptr %6, null
  br i1 %.not, label %7, label %_ZL13handle_resultP9JavaValuebP10JavaThread.exit

7:                                                ; preds = %2
  %8 = getelementptr inbounds i8, ptr %4, i64 8
  %9 = load ptr, ptr %8, align 8
  %10 = icmp eq ptr %9, null
  br i1 %10, label %_ZL13handle_resultP9JavaValuebP10JavaThread.exit, label %11

11:                                               ; preds = %7
  call void @llvm.lifetime.start.p0(i64 56, ptr nonnull %3)
  call void @_ZN10HandleMark10initializeEP6Thread(ptr noundef nonnull align 8 dereferenceable(56) %3, ptr noundef nonnull %1) #13
  %12 = getelementptr inbounds i8, ptr %1, i64 808
  %13 = load ptr, ptr %12, align 8
  %14 = getelementptr inbounds i8, ptr %13, i64 40
  %15 = load ptr, ptr %14, align 8
  %16 = getelementptr inbounds i8, ptr %13, i64 32
  %17 = load ptr, ptr %16, align 8
  %18 = ptrtoint ptr %15 to i64
  %19 = ptrtoint ptr %17 to i64
  %20 = sub i64 %18, %19
  %.not.i.i.i.i.i.i = icmp ult i64 %20, 8
  br i1 %.not.i.i.i.i.i.i, label %23, label %21

21:                                               ; preds = %11
  %22 = getelementptr inbounds i8, ptr %17, i64 8
  store ptr %22, ptr %16, align 8
  br label %_ZN14JfrJavaSupport17global_jni_handleEP7oopDescP10JavaThread.exit.i

23:                                               ; preds = %11
  %24 = call noundef ptr @_ZN5Arena4growEmN17AllocFailStrategy13AllocFailEnumE(ptr noundef nonnull align 8 dereferenceable(48) %13, i64 noundef 8, i32 noundef 0) #13
  br label %_ZN14JfrJavaSupport17global_jni_handleEP7oopDescP10JavaThread.exit.i

_ZN14JfrJavaSupport17global_jni_handleEP7oopDescP10JavaThread.exit.i: ; preds = %23, %21
  %.0.i.i.i.i.i.i = phi ptr [ %17, %21 ], [ %24, %23 ]
  store ptr %9, ptr %.0.i.i.i.i.i.i, align 8
  %25 = call noundef ptr @_ZN10JNIHandles11make_globalE6HandleN17AllocFailStrategy13AllocFailEnumE(ptr nonnull %.0.i.i.i.i.i.i, i32 noundef 0) #13
  call void @_ZN10HandleMarkD1Ev(ptr noundef nonnull align 8 dereferenceable(56) %3) #13
  call void @llvm.lifetime.end.p0(i64 56, ptr nonnull %3)
  store ptr %25, ptr %8, align 8
  br label %_ZL13handle_resultP9JavaValuebP10JavaThread.exit

_ZL13handle_resultP9JavaValuebP10JavaThread.exit: ; preds = %_ZN14JfrJavaSupport17global_jni_handleEP7oopDescP10JavaThread.exit.i, %7, %2
  ret void
}